; Function Attrs: mustprogress uwtable
define void @_ZN6icu_7511PluralRulesC2ERKS0_(ptr noundef nonnull align 8 dereferenceable(28) %this, ptr noundef nonnull align 8 dereferenceable(28) %other) unnamed_addr #1 align 2 personality ptr @__gxx_personality_v0 {
entry:
  store ptr getelementptr inbounds ({ [6 x ptr] }, ptr @_ZTVN6icu_7511PluralRulesE, i64 0, i32 0, i64 2), ptr %this, align 8
  %mRules = getelementptr inbounds i8, ptr %this, i64 8
  tail call void @llvm.memset.p0.i64(ptr noundef nonnull align 8 dereferenceable(20) %mRules, i8 0, i64 20, i1 false)
  %call = invoke noundef nonnull align 8 dereferenceable(28) ptr @_ZN6icu_7511PluralRulesaSERKS0_(ptr noundef nonnull align 8 dereferenceable(28) %this, ptr noundef nonnull align 8 dereferenceable(28) %other)
          to label %invoke.cont unwind label %lpad

invoke.cont:                                      ; preds = %entry
  ret void

lpad:                                             ; preds = %entry
  %0 = landingpad { ptr, i32 }
          cleanup
  tail call void @_ZN6icu_757UObjectD2Ev(ptr noundef nonnull align 8 dereferenceable(8) %this) #25
  resume { ptr, i32 } %0
}